target datalayout = "e-m:e-p270:32:32-p271:32:32-p272:64:64-i64:64-i128:128-f80:128-n8:16:32:64-S128"
target triple = "x86_64-pc-linux-gnu"

@hf_nas_5gs_pdu_session_id = internal global i32 0, align 4
@hf_nas_5gs_mm_5gmm_cause = internal global i32 0, align 4

; Function Attrs: null_pointer_is_valid sspstrong uwtable
define internal zeroext i16 @de_nas_5gs_mm_pdu_ses_react_res_err_c(ptr noundef %0, ptr noundef %1, ptr noundef %2, i32 noundef %3, i32 noundef %4, ptr noundef %5, i32 noundef %6) #0 {
  %8 = alloca ptr, align 8
  %9 = alloca ptr, align 8
  %10 = alloca ptr, align 8
  %11 = alloca i32, align 4
  %12 = alloca i32, align 4
  %13 = alloca ptr, align 8
  %14 = alloca i32, align 4
  %15 = alloca i32, align 4
  store ptr %0, ptr %8, align 8
  store ptr %1, ptr %9, align 8
  store ptr %2, ptr %10, align 8
  store i32 %3, ptr %11, align 4
  store i32 %4, ptr %12, align 4
  store ptr %5, ptr %13, align 8
  store i32 %6, ptr %14, align 4
  call void @llvm.lifetime.start.p0(i64 4, ptr %15) #11
  %16 = load i32, ptr %11, align 4
  store i32 %16, ptr %15, align 4
  br label %17

17:                                               ; preds = %23, %7
  %18 = load i32, ptr %15, align 4
  %19 = load i32, ptr %11, align 4
  %20 = sub i32 %18, %19
  %21 = load i32, ptr %12, align 4
  %22 = icmp ult i32 %20, %21
  br i1 %22, label %23, label %38

23:                                               ; preds = %17
  %24 = load ptr, ptr %9, align 8
  %25 = load i32, ptr @hf_nas_5gs_pdu_session_id, align 4
  %26 = load ptr, ptr %8, align 8
  %27 = load i32, ptr %15, align 4
  %28 = call ptr @proto_tree_add_item(ptr noundef %24, i32 noundef %25, ptr noundef %26, i32 noundef %27, i32 noundef 1, i32 noundef 0)
  %29 = load i32, ptr %15, align 4
  %30 = add i32 %29, 1
  store i32 %30, ptr %15, align 4
  %31 = load ptr, ptr %9, align 8
  %32 = load i32, ptr @hf_nas_5gs_mm_5gmm_cause, align 4
  %33 = load ptr, ptr %8, align 8
  %34 = load i32, ptr %15, align 4
  %35 = call ptr @proto_tree_add_item(ptr noundef %31, i32 noundef %32, ptr noundef %33, i32 noundef %34, i32 noundef 1, i32 noundef 0)
  %36 = load i32, ptr %15, align 4
  %37 = add i32 %36, 1
  store i32 %37, ptr %15, align 4
  br label %17, !llvm.loop !31

38:                                               ; preds = %17
  %39 = load i32, ptr %12, align 4
  %40 = trunc i32 %39 to i16
  call void @llvm.lifetime.end.p0(i64 4, ptr %15) #11
  ret i16 %40
}