; Function Attrs: null_pointer_is_valid sspstrong uwtable
define internal noundef zeroext i16 @de_nas_5gs_mm_pdu_ses_react_res_err_c(ptr noundef %0, ptr noundef %1, ptr readnone captures(none) %2, i32 noundef %3, i32 noundef %4, ptr readnone captures(none) %5, i32 %6) #0 {
  %.not = icmp eq i32 %4, 0
  br i1 %.not, label %._crit_edge, label %.lr.ph

.lr.ph:                                           ; preds = %7, %.lr.ph
  %.013 = phi i32 [ %13, %.lr.ph ], [ %3, %7 ]
  %8 = load i32, ptr @hf_nas_5gs_pdu_session_id, align 4
  %9 = tail call ptr @proto_tree_add_item(ptr noundef %1, i32 noundef %8, ptr noundef %0, i32 noundef %.013, i32 noundef 1, i32 noundef 0)
  %10 = add i32 %.013, 1
  %11 = load i32, ptr @hf_nas_5gs_mm_5gmm_cause, align 4
  %12 = tail call ptr @proto_tree_add_item(ptr noundef %1, i32 noundef %11, ptr noundef %0, i32 noundef %10, i32 noundef 1, i32 noundef 0)
  %13 = add i32 %.013, 2
  %14 = sub i32 %13, %3
  %15 = icmp ult i32 %14, %4
  br i1 %15, label %.lr.ph, label %._crit_edge, !llvm.loop !31

._crit_edge:                                      ; preds = %.lr.ph, %7
  %16 = trunc i32 %4 to i16
  ret i16 %16
}